target datalayout = "e-m:e-p270:32:32-p271:32:32-p272:64:64-i64:64-i128:128-f80:128-n8:16:32:64-S128"
target triple = "x86_64-pc-linux-gnu"

%class.G1HeapRegion = type { ptr, ptr, ptr, ptr, ptr, ptr, i32, %class.G1HeapRegionType, ptr, i32, ptr, ptr, ptr, i64, i32, ptr, i32, i32, i64 }
%class.G1HeapRegionType = type { i32 }
%class.G1HeapRegionSetBase = type <{ ptr, ptr, i32, [4 x i8], ptr, i8, [7 x i8] }>
%class.G1FreeRegionList = type { %class.G1HeapRegionSetBase.base, ptr, ptr, ptr, ptr }
%class.G1HeapRegionSetBase.base = type <{ ptr, ptr, i32, [4 x i8], ptr, i8 }>
%"class.G1FreeRegionList::NodeInfo" = type <{ ptr, ptr, i32, [4 x i8] }>

; Function Attrs: mustprogress nounwind uwtable
define linkonce_odr hidden noundef i32 @_ZNK19G1HeapRegionSetBase6lengthEv(ptr noundef nonnull align 8 dereferenceable(33) %0) #1 comdat align 2 {
  %2 = alloca ptr, align 8
  store ptr %0, ptr %2, align 8
  %3 = load ptr, ptr %2, align 8
  %4 = getelementptr inbounds %class.G1HeapRegionSetBase, ptr %3, i32 0, i32 2
  %5 = load i32, ptr %4, align 8
  ret i32 %5
}

; Function Attrs: mustprogress nounwind uwtable
define hidden void @_ZN16G1FreeRegionList8NodeInfo3addEPS0_(ptr noundef nonnull align 8 dereferenceable(20) %0, ptr noundef %1) #1 align 2 {
  %3 = alloca ptr, align 8
  %4 = alloca ptr, align 8
  %5 = alloca i32, align 4
  store ptr %0, ptr %3, align 8
  store ptr %1, ptr %4, align 8
  %6 = load ptr, ptr %3, align 8
  store i32 0, ptr %5, align 4
  br label %7

7:                                                ; preds = %27, %2
  %8 = load i32, ptr %5, align 4
  %9 = getelementptr inbounds %"class.G1FreeRegionList::NodeInfo", ptr %6, i32 0, i32 2
  %10 = load i32, ptr %9, align 8
  %11 = icmp ult i32 %8, %10
  br i1 %11, label %12, label %30

12:                                               ; preds = %7
  %13 = load ptr, ptr %4, align 8
  %14 = getelementptr inbounds %"class.G1FreeRegionList::NodeInfo", ptr %13, i32 0, i32 1
  %15 = load ptr, ptr %14, align 8
  %16 = load i32, ptr %5, align 4
  %17 = zext i32 %16 to i64
  %18 = getelementptr inbounds i32, ptr %15, i64 %17
  %19 = load i32, ptr %18, align 4
  %20 = getelementptr inbounds %"class.G1FreeRegionList::NodeInfo", ptr %6, i32 0, i32 1
  %21 = load ptr, ptr %20, align 8
  %22 = load i32, ptr %5, align 4
  %23 = zext i32 %22 to i64
  %24 = getelementptr inbounds i32, ptr %21, i64 %23
  %25 = load i32, ptr %24, align 4
  %26 = add i32 %25, %19
  store i32 %26, ptr %24, align 4
  br label %27

27:                                               ; preds = %12
  %28 = load i32, ptr %5, align 4
  %29 = add i32 %28, 1
  store i32 %29, ptr %5, align 4
  br label %7, !llvm.loop !8

30:                                               ; preds = %7
  ret void
}

; Function Attrs: mustprogress nounwind uwtable
define linkonce_odr hidden void @_ZN19G1HeapRegionSetBase15verify_optionalEv(ptr noundef nonnull align 8 dereferenceable(33) %0) #1 comdat align 2 {
  %2 = alloca ptr, align 8
  store ptr %0, ptr %2, align 8
  ret void
}

; Function Attrs: mustprogress nounwind uwtable
define linkonce_odr hidden void @_ZN19G1HeapRegionSetBase15check_mt_safetyEv(ptr noundef nonnull align 8 dereferenceable(33) %0) #1 comdat align 2 {
  %2 = alloca ptr, align 8
  store ptr %0, ptr %2, align 8
  %3 = load ptr, ptr %2, align 8
  %4 = getelementptr inbounds %class.G1HeapRegionSetBase, ptr %3, i32 0, i32 1
  %5 = load ptr, ptr %4, align 8
  %6 = icmp ne ptr %5, null
  br i1 %6, label %7, label %13

7:                                                ; preds = %1
  %8 = getelementptr inbounds %class.G1HeapRegionSetBase, ptr %3, i32 0, i32 1
  %9 = load ptr, ptr %8, align 8
  %10 = load ptr, ptr %9, align 8
  %11 = getelementptr inbounds ptr, ptr %10, i64 0
  %12 = load ptr, ptr %11, align 8
  call void %12(ptr noundef nonnull align 8 dereferenceable(8) %9)
  br label %13

13:                                               ; preds = %7, %1
  ret void
}

; Function Attrs: mustprogress nounwind uwtable
define hidden void @_ZN16G1FreeRegionList19add_list_common_endEPS_(ptr noundef nonnull align 8 dereferenceable(72) %0, ptr noundef %1) #1 align 2 {
  %3 = alloca ptr, align 8
  %4 = alloca ptr, align 8
  store ptr %0, ptr %3, align 8
  store ptr %1, ptr %4, align 8
  %5 = load ptr, ptr %3, align 8
  %6 = load ptr, ptr %4, align 8
  %7 = call noundef i32 @_ZNK19G1HeapRegionSetBase6lengthEv(ptr noundef nonnull align 8 dereferenceable(33) %6)
  %8 = getelementptr inbounds %class.G1HeapRegionSetBase, ptr %5, i32 0, i32 2
  %9 = load i32, ptr %8, align 8
  %10 = add i32 %9, %7
  store i32 %10, ptr %8, align 8
  %11 = load ptr, ptr %4, align 8
  %12 = load ptr, ptr %11, align 8
  %13 = getelementptr inbounds ptr, ptr %12, i64 2
  %14 = load ptr, ptr %13, align 8
  call void %14(ptr noundef nonnull align 8 dereferenceable(72) %11)
  call void @_ZN19G1HeapRegionSetBase15verify_optionalEv(ptr noundef nonnull align 8 dereferenceable(33) %5)
  %15 = load ptr, ptr %4, align 8
  call void @_ZN19G1HeapRegionSetBase15verify_optionalEv(ptr noundef nonnull align 8 dereferenceable(33) %15)
  ret void
}

; Function Attrs: mustprogress nounwind uwtable
define linkonce_odr hidden noundef ptr @_ZN12G1HeapRegion4prevEv(ptr noundef nonnull align 8 dereferenceable(136) %0) #1 comdat align 2 {
  %2 = alloca ptr, align 8
  store ptr %0, ptr %2, align 8
  %3 = load ptr, ptr %2, align 8
  %4 = getelementptr inbounds %class.G1HeapRegion, ptr %3, i32 0, i32 11
  %5 = load ptr, ptr %4, align 8
  ret ptr %5
}

; Function Attrs: mustprogress nounwind uwtable
define linkonce_odr hidden void @_ZN12G1HeapRegion8set_prevEPS_(ptr noundef nonnull align 8 dereferenceable(136) %0, ptr noundef %1) #1 comdat align 2 {
  %3 = alloca ptr, align 8
  %4 = alloca ptr, align 8
  store ptr %0, ptr %3, align 8
  store ptr %1, ptr %4, align 8
  %5 = load ptr, ptr %3, align 8
  %6 = load ptr, ptr %4, align 8
  %7 = getelementptr inbounds %class.G1HeapRegion, ptr %5, i32 0, i32 11
  store ptr %6, ptr %7, align 8
  ret void
}

; Function Attrs: mustprogress nounwind uwtable
define linkonce_odr hidden void @_ZN12G1HeapRegion8set_nextEPS_(ptr noundef nonnull align 8 dereferenceable(136) %0, ptr noundef %1) #1 comdat align 2 {
  %3 = alloca ptr, align 8
  %4 = alloca ptr, align 8
  store ptr %0, ptr %3, align 8
  store ptr %1, ptr %4, align 8
  %5 = load ptr, ptr %3, align 8
  %6 = load ptr, ptr %4, align 8
  %7 = getelementptr inbounds %class.G1HeapRegion, ptr %5, i32 0, i32 10
  store ptr %6, ptr %7, align 8
  ret void
}

; Function Attrs: mustprogress nounwind uwtable
define linkonce_odr hidden noundef ptr @_ZN12G1HeapRegion4nextEv(ptr noundef nonnull align 8 dereferenceable(136) %0) #1 comdat align 2 {
  %2 = alloca ptr, align 8
  store ptr %0, ptr %2, align 8
  %3 = load ptr, ptr %2, align 8
  %4 = getelementptr inbounds %class.G1HeapRegion, ptr %3, i32 0, i32 10
  %5 = load ptr, ptr %4, align 8
  ret ptr %5
}

; Function Attrs: mustprogress nounwind uwtable
define linkonce_odr hidden noundef i32 @_ZNK12G1HeapRegion9hrm_indexEv(ptr noundef nonnull align 8 dereferenceable(136) %0) #1 comdat align 2 {
  %2 = alloca ptr, align 8
  store ptr %0, ptr %2, align 8
  %3 = load ptr, ptr %2, align 8
  %4 = getelementptr inbounds %class.G1HeapRegion, ptr %3, i32 0, i32 6
  %5 = load i32, ptr %4, align 8
  ret i32 %5
}

; Function Attrs: mustprogress nounwind uwtable
define linkonce_odr hidden noundef zeroext i1 @_ZN19G1HeapRegionSetBase8is_emptyEv(ptr noundef nonnull align 8 dereferenceable(33) %0) #1 comdat align 2 {
  %2 = alloca ptr, align 8
  store ptr %0, ptr %2, align 8
  %3 = load ptr, ptr %2, align 8
  %4 = getelementptr inbounds %class.G1HeapRegionSetBase, ptr %3, i32 0, i32 2
  %5 = load i32, ptr %4, align 8
  %6 = icmp eq i32 %5, 0
  ret i1 %6
}

; Function Attrs: mustprogress nounwind uwtable
define hidden void @_ZN16G1FreeRegionList21add_list_common_startEPS_(ptr noundef nonnull align 8 dereferenceable(72) %0, ptr noundef %1) #1 align 2 {
  %3 = alloca ptr, align 8
  %4 = alloca ptr, align 8
  store ptr %0, ptr %3, align 8
  store ptr %1, ptr %4, align 8
  %5 = load ptr, ptr %3, align 8
  call void @_ZN19G1HeapRegionSetBase15check_mt_safetyEv(ptr noundef nonnull align 8 dereferenceable(33) %5)
  %6 = load ptr, ptr %4, align 8
  call void @_ZN19G1HeapRegionSetBase15check_mt_safetyEv(ptr noundef nonnull align 8 dereferenceable(33) %6)
  call void @_ZN19G1HeapRegionSetBase15verify_optionalEv(ptr noundef nonnull align 8 dereferenceable(33) %5)
  %7 = load ptr, ptr %4, align 8
  call void @_ZN19G1HeapRegionSetBase15verify_optionalEv(ptr noundef nonnull align 8 dereferenceable(33) %7)
  %8 = load ptr, ptr %4, align 8
  %9 = call noundef zeroext i1 @_ZN19G1HeapRegionSetBase8is_emptyEv(ptr noundef nonnull align 8 dereferenceable(33) %8)
  br i1 %9, label %10, label %11

10:                                               ; preds = %2
  br label %26

11:                                               ; preds = %2
  %12 = getelementptr inbounds %class.G1FreeRegionList, ptr %5, i32 0, i32 4
  %13 = load ptr, ptr %12, align 8
  %14 = icmp ne ptr %13, null
  br i1 %14, label %15, label %26

15:                                               ; preds = %11
  %16 = load ptr, ptr %4, align 8
  %17 = getelementptr inbounds %class.G1FreeRegionList, ptr %16, i32 0, i32 4
  %18 = load ptr, ptr %17, align 8
  %19 = icmp ne ptr %18, null
  br i1 %19, label %20, label %26

20:                                               ; preds = %15
  %21 = getelementptr inbounds %class.G1FreeRegionList, ptr %5, i32 0, i32 4
  %22 = load ptr, ptr %21, align 8
  %23 = load ptr, ptr %4, align 8
  %24 = getelementptr inbounds %class.G1FreeRegionList, ptr %23, i32 0, i32 4
  %25 = load ptr, ptr %24, align 8
  call void @_ZN16G1FreeRegionList8NodeInfo3addEPS0_(ptr noundef nonnull align 8 dereferenceable(20) %22, ptr noundef %25)
  br label %26

26:                                               ; preds = %20, %15, %11, %10
  ret void
}

; Function Attrs: mustprogress nounwind uwtable
define hidden void @_ZN16G1FreeRegionList11add_orderedEPS_(ptr noundef nonnull align 8 dereferenceable(72) %0, ptr noundef %1) #1 align 2 {
  %3 = alloca ptr, align 8
  %4 = alloca ptr, align 8
  %5 = alloca ptr, align 8
  %6 = alloca ptr, align 8
  %7 = alloca ptr, align 8
  store ptr %0, ptr %3, align 8
  store ptr %1, ptr %4, align 8
  %8 = load ptr, ptr %3, align 8
  %9 = load ptr, ptr %4, align 8
  call void @_ZN16G1FreeRegionList21add_list_common_startEPS_(ptr noundef nonnull align 8 dereferenceable(72) %8, ptr noundef %9)
  %10 = load ptr, ptr %4, align 8
  %11 = call noundef zeroext i1 @_ZN19G1HeapRegionSetBase8is_emptyEv(ptr noundef nonnull align 8 dereferenceable(33) %10)
  br i1 %11, label %12, label %13

12:                                               ; preds = %2
  br label %100

13:                                               ; preds = %2
  %14 = call noundef zeroext i1 @_ZN19G1HeapRegionSetBase8is_emptyEv(ptr noundef nonnull align 8 dereferenceable(33) %8)
  br i1 %14, label %15, label %26

15:                                               ; preds = %13
  br label %16

16:                                               ; preds = %15
  br label %17

17:                                               ; preds = %16
  %18 = load ptr, ptr %4, align 8
  %19 = getelementptr inbounds %class.G1FreeRegionList, ptr %18, i32 0, i32 1
  %20 = load ptr, ptr %19, align 8
  %21 = getelementptr inbounds %class.G1FreeRegionList, ptr %8, i32 0, i32 1
  store ptr %20, ptr %21, align 8
  %22 = load ptr, ptr %4, align 8
  %23 = getelementptr inbounds %class.G1FreeRegionList, ptr %22, i32 0, i32 2
  %24 = load ptr, ptr %23, align 8
  %25 = getelementptr inbounds %class.G1FreeRegionList, ptr %8, i32 0, i32 2
  store ptr %24, ptr %25, align 8
  br label %98

26:                                               ; preds = %13
  %27 = getelementptr inbounds %class.G1FreeRegionList, ptr %8, i32 0, i32 1
  %28 = load ptr, ptr %27, align 8
  store ptr %28, ptr %5, align 8
  %29 = load ptr, ptr %4, align 8
  %30 = getelementptr inbounds %class.G1FreeRegionList, ptr %29, i32 0, i32 1
  %31 = load ptr, ptr %30, align 8
  store ptr %31, ptr %6, align 8
  br label %32

32:                                               ; preds = %82, %26
  %33 = load ptr, ptr %6, align 8
  %34 = icmp ne ptr %33, null
  br i1 %34, label %35, label %83

35:                                               ; preds = %32
  br label %36

36:                                               ; preds = %47, %35
  %37 = load ptr, ptr %5, align 8
  %38 = icmp ne ptr %37, null
  br i1 %38, label %39, label %45

39:                                               ; preds = %36
  %40 = load ptr, ptr %5, align 8
  %41 = call noundef i32 @_ZNK12G1HeapRegion9hrm_indexEv(ptr noundef nonnull align 8 dereferenceable(136) %40)
  %42 = load ptr, ptr %6, align 8
  %43 = call noundef i32 @_ZNK12G1HeapRegion9hrm_indexEv(ptr noundef nonnull align 8 dereferenceable(136) %42)
  %44 = icmp ult i32 %41, %43
  br label %45

45:                                               ; preds = %39, %36
  %46 = phi i1 [ false, %36 ], [ %44, %39 ]
  br i1 %46, label %47, label %50

47:                                               ; preds = %45
  %48 = load ptr, ptr %5, align 8
  %49 = call noundef ptr @_ZN12G1HeapRegion4nextEv(ptr noundef nonnull align 8 dereferenceable(136) %48)
  store ptr %49, ptr %5, align 8
  br label %36, !llvm.loop !9

50:                                               ; preds = %45
  %51 = load ptr, ptr %5, align 8
  %52 = icmp eq ptr %51, null
  br i1 %52, label %53, label %60

53:                                               ; preds = %50
  %54 = getelementptr inbounds %class.G1FreeRegionList, ptr %8, i32 0, i32 2
  %55 = load ptr, ptr %54, align 8
  %56 = load ptr, ptr %6, align 8
  call void @_ZN12G1HeapRegion8set_nextEPS_(ptr noundef nonnull align 8 dereferenceable(136) %55, ptr noundef %56)
  %57 = load ptr, ptr %6, align 8
  %58 = getelementptr inbounds %class.G1FreeRegionList, ptr %8, i32 0, i32 2
  %59 = load ptr, ptr %58, align 8
  call void @_ZN12G1HeapRegion8set_prevEPS_(ptr noundef nonnull align 8 dereferenceable(136) %57, ptr noundef %59)
  store ptr null, ptr %6, align 8
  br label %82

60:                                               ; preds = %50
  %61 = load ptr, ptr %6, align 8
  %62 = call noundef ptr @_ZN12G1HeapRegion4nextEv(ptr noundef nonnull align 8 dereferenceable(136) %61)
  store ptr %62, ptr %7, align 8
  %63 = load ptr, ptr %6, align 8
  %64 = load ptr, ptr %5, align 8
  call void @_ZN12G1HeapRegion8set_nextEPS_(ptr noundef nonnull align 8 dereferenceable(136) %63, ptr noundef %64)
  %65 = load ptr, ptr %6, align 8
  %66 = load ptr, ptr %5, align 8
  %67 = call noundef ptr @_ZN12G1HeapRegion4prevEv(ptr noundef nonnull align 8 dereferenceable(136) %66)
  call void @_ZN12G1HeapRegion8set_prevEPS_(ptr noundef nonnull align 8 dereferenceable(136) %65, ptr noundef %67)
  %68 = load ptr, ptr %5, align 8
  %69 = call noundef ptr @_ZN12G1HeapRegion4prevEv(ptr noundef nonnull align 8 dereferenceable(136) %68)
  %70 = icmp eq ptr %69, null
  br i1 %70, label %71, label %74

71:                                               ; preds = %60
  %72 = load ptr, ptr %6, align 8
  %73 = getelementptr inbounds %class.G1FreeRegionList, ptr %8, i32 0, i32 1
  store ptr %72, ptr %73, align 8
  br label %78

74:                                               ; preds = %60
  %75 = load ptr, ptr %5, align 8
  %76 = call noundef ptr @_ZN12G1HeapRegion4prevEv(ptr noundef nonnull align 8 dereferenceable(136) %75)
  %77 = load ptr, ptr %6, align 8
  call void @_ZN12G1HeapRegion8set_nextEPS_(ptr noundef nonnull align 8 dereferenceable(136) %76, ptr noundef %77)
  br label %78

78:                                               ; preds = %74, %71
  %79 = load ptr, ptr %5, align 8
  %80 = load ptr, ptr %6, align 8
  call void @_ZN12G1HeapRegion8set_prevEPS_(ptr noundef nonnull align 8 dereferenceable(136) %79, ptr noundef %80)
  %81 = load ptr, ptr %7, align 8
  store ptr %81, ptr %6, align 8
  br label %82

82:                                               ; preds = %78, %53
  br label %32, !llvm.loop !10

83:                                               ; preds = %32
  %84 = getelementptr inbounds %class.G1FreeRegionList, ptr %8, i32 0, i32 2
  %85 = load ptr, ptr %84, align 8
  %86 = call noundef i32 @_ZNK12G1HeapRegion9hrm_indexEv(ptr noundef nonnull align 8 dereferenceable(136) %85)
  %87 = load ptr, ptr %4, align 8
  %88 = getelementptr inbounds %class.G1FreeRegionList, ptr %87, i32 0, i32 2
  %89 = load ptr, ptr %88, align 8
  %90 = call noundef i32 @_ZNK12G1HeapRegion9hrm_indexEv(ptr noundef nonnull align 8 dereferenceable(136) %89)
  %91 = icmp ult i32 %86, %90
  br i1 %91, label %92, label %97

92:                                               ; preds = %83
  %93 = load ptr, ptr %4, align 8
  %94 = getelementptr inbounds %class.G1FreeRegionList, ptr %93, i32 0, i32 2
  %95 = load ptr, ptr %94, align 8
  %96 = getelementptr inbounds %class.G1FreeRegionList, ptr %8, i32 0, i32 2
  store ptr %95, ptr %96, align 8
  br label %97

97:                                               ; preds = %92, %83
  br label %98

98:                                               ; preds = %97, %17
  %99 = load ptr, ptr %4, align 8
  call void @_ZN16G1FreeRegionList19add_list_common_endEPS_(ptr noundef nonnull align 8 dereferenceable(72) %8, ptr noundef %99)
  br label %100

100:                                              ; preds = %98, %12
  ret void
}